; ModuleID = '19/2101.c'
source_filename = "19/2101.c"
target datalayout = "e-m:e-p270:32:32-p271:32:32-p272:64:64-i64:64-f80:128-n8:16:32:64-S128"
target triple = "x86_64-pc-linux-gnu"

@.str = private unnamed_addr constant [3 x i8] c"%s\00", align 1
@.str.1 = private unnamed_addr constant [2 x i8] c" \00", align 1

; Function Attrs: noinline nounwind uwtable
define dso_local i32 @main() #0 {
  %1 = alloca i32, align 4
  %2 = alloca [100 x i8], align 16
  %3 = alloca [100 x i8], align 16
  %4 = alloca [100 x i8], align 16
  %5 = alloca i8*, align 8
  %6 = alloca i32, align 4
  %7 = alloca [100 x i8], align 16
  store i32 0, i32* %1, align 4
  %8 = getelementptr inbounds [100 x i8], [100 x i8]* %2, i64 0, i64 0
  %9 = call i32 (i8*, ...) bitcast (i32 (...)* @gets to i32 (i8*, ...)*)(i8* %8)
  %10 = getelementptr inbounds [100 x i8], [100 x i8]* %3, i64 0, i64 0
  %11 = call i32 (i8*, ...) bitcast (i32 (...)* @gets to i32 (i8*, ...)*)(i8* %10)
  %12 = getelementptr inbounds [100 x i8], [100 x i8]* %4, i64 0, i64 0
  %13 = call i32 (i8*, ...) bitcast (i32 (...)* @gets to i32 (i8*, ...)*)(i8* %12)
  %14 = getelementptr inbounds [100 x i8], [100 x i8]* %2, i64 0, i64 0
  store i8* %14, i8** %5, align 8
  br label %15

15:                                               ; preds = %74, %0
  %16 = load i8*, i8** %5, align 8
  %17 = load i8, i8* %16, align 1
  %18 = sext i8 %17 to i32
  %19 = icmp ne i32 %18, 0
  br i1 %19, label %20, label %75

20:                                               ; preds = %15
  store i32 0, i32* %6, align 4
  store i32 0, i32* %6, align 4
  br label %21

21:                                               ; preds = %28, %20
  %22 = load i32, i32* %6, align 4
  %23 = icmp sle i32 %22, 99
  br i1 %23, label %24, label %31

24:                                               ; preds = %21
  %25 = load i32, i32* %6, align 4
  %26 = sext i32 %25 to i64
  %27 = getelementptr inbounds [100 x i8], [100 x i8]* %7, i64 0, i64 %26
  store i8 0, i8* %27, align 1
  br label %28

28:                                               ; preds = %24
  %29 = load i32, i32* %6, align 4
  %30 = add nsw i32 %29, 1
  store i32 %30, i32* %6, align 4
  br label %21

31:                                               ; preds = %21
  store i32 0, i32* %6, align 4
  br label %32

32:                                               ; preds = %52, %31
  %33 = load i8*, i8** %5, align 8
  %34 = load i8, i8* %33, align 1
  %35 = load i32, i32* %6, align 4
  %36 = sext i32 %35 to i64
  %37 = getelementptr inbounds [100 x i8], [100 x i8]* %7, i64 0, i64 %36
  store i8 %34, i8* %37, align 1
  %38 = load i8*, i8** %5, align 8
  %39 = getelementptr inbounds i8, i8* %38, i32 1
  store i8* %39, i8** %5, align 8
  %40 = load i32, i32* %6, align 4
  %41 = add nsw i32 %40, 1
  store i32 %41, i32* %6, align 4
  br label %42

42:                                               ; preds = %32
  %43 = load i8*, i8** %5, align 8
  %44 = load i8, i8* %43, align 1
  %45 = sext i8 %44 to i32
  %46 = icmp ne i32 %45, 32
  br i1 %46, label %47, label %52

47:                                               ; preds = %42
  %48 = load i8*, i8** %5, align 8
  %49 = load i8, i8* %48, align 1
  %50 = sext i8 %49 to i32
  %51 = icmp ne i32 %50, 0
  br label %52

52:                                               ; preds = %47, %42
  %53 = phi i1 [ false, %42 ], [ %51, %47 ]
  br i1 %53, label %32, label %54

54:                                               ; preds = %52
  %55 = getelementptr inbounds [100 x i8], [100 x i8]* %3, i64 0, i64 0
  %56 = getelementptr inbounds [100 x i8], [100 x i8]* %7, i64 0, i64 0
  %57 = call i32 @strcmp(i8* %55, i8* %56) #3
  %58 = icmp eq i32 %57, 0
  br i1 %58, label %59, label %62

59:                                               ; preds = %54
  %60 = getelementptr inbounds [100 x i8], [100 x i8]* %4, i64 0, i64 0
  %61 = call i32 (i8*, ...) @printf(i8* getelementptr inbounds ([3 x i8], [3 x i8]* @.str, i64 0, i64 0), i8* %60)
  br label %65

62:                                               ; preds = %54
  %63 = getelementptr inbounds [100 x i8], [100 x i8]* %7, i64 0, i64 0
  %64 = call i32 (i8*, ...) @printf(i8* getelementptr inbounds ([3 x i8], [3 x i8]* @.str, i64 0, i64 0), i8* %63)
  br label %65

65:                                               ; preds = %62, %59
  %66 = load i8*, i8** %5, align 8
  %67 = load i8, i8* %66, align 1
  %68 = sext i8 %67 to i32
  %69 = icmp eq i32 %68, 32
  br i1 %69, label %70, label %74

70:                                               ; preds = %65
  %71 = load i8*, i8** %5, align 8
  %72 = getelementptr inbounds i8, i8* %71, i32 1
  store i8* %72, i8** %5, align 8
  %73 = call i32 (i8*, ...) @printf(i8* getelementptr inbounds ([2 x i8], [2 x i8]* @.str.1, i64 0, i64 0))
  br label %74

74:                                               ; preds = %70, %65
  br label %15

75:                                               ; preds = %15
  ret i32 0
}

declare dso_local i32 @gets(...) #1

; Function Attrs: nounwind readonly
declare dso_local i32 @strcmp(i8*, i8*) #2

declare dso_local i32 @printf(i8*, ...) #1


!llvm.module.flags = !{!0}
!llvm.ident = !{!1}

!0 = !{i32 1, !"wchar_size", i32 4}
!1 = !{!"clang version 10.0.0-4ubuntu1 "}
