; ModuleID = 'source-C-CXX/18/2101.c'
source_filename = "source-C-CXX/18/2101.c"
target datalayout = "e-m:e-p270:32:32-p271:32:32-p272:64:64-i64:64-f80:128-n8:16:32:64-S128"
target triple = "x86_64-pc-linux-gnu"

@.str = private unnamed_addr constant [3 x i8] c"%s\00", align 1

; Function Attrs: nounwind sspstrong uwtable
define dso_local i32 @main() local_unnamed_addr #0 {
  %1 = alloca [100 x i8], align 16
  %2 = alloca [100 x i8], align 16
  %3 = alloca [100 x i8], align 16
  %4 = alloca [100 x i8], align 16
  %5 = getelementptr inbounds [100 x i8], [100 x i8]* %4, i64 0, i64 0
  %6 = getelementptr inbounds [100 x i8], [100 x i8]* %1, i64 0, i64 0
  call void @llvm.lifetime.start.p0i8(i64 100, i8* nonnull %6) #7
  %7 = getelementptr inbounds [100 x i8], [100 x i8]* %2, i64 0, i64 0
  call void @llvm.lifetime.start.p0i8(i64 100, i8* nonnull %7) #7
  %8 = getelementptr inbounds [100 x i8], [100 x i8]* %3, i64 0, i64 0
  call void @llvm.lifetime.start.p0i8(i64 100, i8* nonnull %8) #7
  %9 = call i32 (i8*, ...) bitcast (i32 (...)* @gets to i32 (i8*, ...)*)(i8* nonnull %6) #7
  %10 = call i32 (i8*, ...) bitcast (i32 (...)* @gets to i32 (i8*, ...)*)(i8* nonnull %7) #7
  %11 = call i32 (i8*, ...) bitcast (i32 (...)* @gets to i32 (i8*, ...)*)(i8* nonnull %8) #7
  %12 = getelementptr inbounds [100 x i8], [100 x i8]* %4, i64 0, i64 0
  %13 = load i8, i8* %6, align 16, !tbaa !5
  %14 = icmp eq i8 %13, 0
  br i1 %14, label %40, label %15

15:                                               ; preds = %0, %36
  %16 = phi i8* [ %37, %36 ], [ %6, %0 ]
  call void @llvm.lifetime.start.p0i8(i64 100, i8* nonnull %12) #7
  call void @llvm.memset.p0i8.i64(i8* noundef nonnull align 16 dereferenceable(100) %5, i8 0, i64 100, i1 false)
  %17 = load i8, i8* %16, align 1, !tbaa !5
  br label %18

18:                                               ; preds = %15, %18
  %19 = phi i8 [ %17, %15 ], [ %24, %18 ]
  %20 = phi i64 [ 0, %15 ], [ %25, %18 ]
  %21 = phi i8* [ %16, %15 ], [ %23, %18 ]
  %22 = getelementptr inbounds [100 x i8], [100 x i8]* %4, i64 0, i64 %20
  store i8 %19, i8* %22, align 1, !tbaa !5
  %23 = getelementptr inbounds i8, i8* %21, i64 1
  %24 = load i8, i8* %23, align 1, !tbaa !5
  %25 = add nuw i64 %20, 1
  switch i8 %24, label %18 [
    i8 32, label %26
    i8 0, label %26
  ]

26:                                               ; preds = %18, %18
  %27 = call i32 @strcmp(i8* noundef nonnull %7, i8* noundef nonnull %12) #8
  %28 = icmp eq i32 %27, 0
  %29 = select i1 %28, i8* %8, i8* %12
  %30 = call i32 (i8*, ...) @printf(i8* nonnull dereferenceable(1) getelementptr inbounds ([3 x i8], [3 x i8]* @.str, i64 0, i64 0), i8* nonnull %29)
  %31 = load i8, i8* %23, align 1, !tbaa !5
  %32 = icmp eq i8 %31, 32
  br i1 %32, label %33, label %36

33:                                               ; preds = %26
  %34 = getelementptr inbounds i8, i8* %21, i64 2
  %35 = call i32 @putchar(i32 32)
  br label %36

36:                                               ; preds = %33, %26
  %37 = phi i8* [ %34, %33 ], [ %23, %26 ]
  call void @llvm.lifetime.end.p0i8(i64 100, i8* nonnull %12) #7
  %38 = load i8, i8* %37, align 1, !tbaa !5
  %39 = icmp eq i8 %38, 0
  br i1 %39, label %40, label %15, !llvm.loop !8

40:                                               ; preds = %36, %0
  call void @llvm.lifetime.end.p0i8(i64 100, i8* nonnull %8) #7
  call void @llvm.lifetime.end.p0i8(i64 100, i8* nonnull %7) #7
  call void @llvm.lifetime.end.p0i8(i64 100, i8* nonnull %6) #7
  ret i32 0
}

; Function Attrs: argmemonly mustprogress nofree nosync nounwind willreturn
declare void @llvm.lifetime.start.p0i8(i64 immarg, i8* nocapture) #1

declare i32 @gets(...) local_unnamed_addr #2

; Function Attrs: argmemonly mustprogress nofree nounwind readonly willreturn
declare i32 @strcmp(i8* nocapture, i8* nocapture) local_unnamed_addr #3

; Function Attrs: nofree nounwind
declare noundef i32 @printf(i8* nocapture noundef readonly, ...) local_unnamed_addr #4

; Function Attrs: argmemonly mustprogress nofree nosync nounwind willreturn
declare void @llvm.lifetime.end.p0i8(i64 immarg, i8* nocapture) #1

; Function Attrs: nofree nounwind
declare noundef i32 @putchar(i32 noundef) local_unnamed_addr #5

; Function Attrs: argmemonly nofree nounwind willreturn writeonly
declare void @llvm.memset.p0i8.i64(i8* nocapture writeonly, i8, i64, i1 immarg) #6


!llvm.module.flags = !{!0, !1, !2, !3}
!llvm.ident = !{!4}

!0 = !{i32 1, !"wchar_size", i32 4}
!1 = !{i32 7, !"PIC Level", i32 2}
!2 = !{i32 7, !"PIE Level", i32 2}
!3 = !{i32 7, !"uwtable", i32 1}
!4 = !{!"clang version 13.0.0"}
!5 = !{!6, !6, i64 0}
!6 = !{!"omnipotent char", !7, i64 0}
!7 = !{!"Simple C/C++ TBAA"}
!8 = distinct !{!8, !9}
!9 = !{!"llvm.loop.mustprogress"}
